; Function Attrs: nounwind uwtable
define internal range(i32 0, 2) i32 @clean_transaction(ptr noundef %0, ptr readnone captures(none) %1) #0 {
  %3 = tail call ptr @OSSL_CMP_SRV_CTX_get0_custom_ctx(ptr noundef %0) #4
  %4 = icmp eq ptr %3, null
  br i1 %4, label %5, label %6

5:                                                ; preds = %2
  tail call void @ERR_new() #4
  tail call void @ERR_set_debug(ptr noundef nonnull @.str, i32 noundef 272, ptr noundef nonnull @__func__.clean_transaction) #4
  tail call void (i32, i32, ptr, ...) @ERR_set_error(i32 noundef 58, i32 noundef 103, ptr noundef null) #4
  br label %10

6:                                                ; preds = %2
  %7 = getelementptr inbounds nuw i8, ptr %3, i64 100
  store i32 0, ptr %7, align 4, !tbaa !31
  %8 = getelementptr inbounds nuw i8, ptr %3, i64 88
  %9 = load ptr, ptr %8, align 8, !tbaa !28
  tail call void @OSSL_CMP_MSG_free(ptr noundef %9) #4
  store ptr null, ptr %8, align 8, !tbaa !28
  br label %10

10:                                               ; preds = %6, %5
  %.0 = phi i32 [ 0, %5 ], [ 1, %6 ]
  ret i32 %.0
}